target datalayout = "e-m:e-p270:32:32-p271:32:32-p272:64:64-i64:64-i128:128-f80:128-n8:16:32:64-S128"
target triple = "x86_64-pc-linux-gnu"

%"struct.absl::cord_internal::CordRep" = type { i64, %"class.absl::cord_internal::RefcountAndFlags", i8, [3 x i8] }
%"class.absl::cord_internal::RefcountAndFlags" = type { %"struct.std::atomic" }
%"struct.std::atomic" = type { %"struct.std::__atomic_base" }
%"struct.std::__atomic_base" = type { i32 }

; Function Attrs: mustprogress nounwind uwtable
define linkonce_odr dso_local void @_ZNSt13__atomic_baseIiEC2Ei(ptr noundef nonnull align 4 dereferenceable(4) %0, i32 noundef %1) unnamed_addr #6 comdat align 2 {
  %3 = alloca ptr, align 8
  %4 = alloca i32, align 4
  store ptr %0, ptr %3, align 8, !tbaa !151
  store i32 %1, ptr %4, align 4, !tbaa !11
  %5 = load ptr, ptr %3, align 8
  %6 = getelementptr inbounds nuw %"struct.std::__atomic_base", ptr %5, i32 0, i32 0
  %7 = load i32, ptr %4, align 4, !tbaa !11
  store i32 %7, ptr %6, align 4, !tbaa !153
  ret void
}

; Function Attrs: mustprogress nounwind uwtable
define linkonce_odr dso_local void @_ZNSt6atomicIiEC2Ei(ptr noundef nonnull align 4 dereferenceable(4) %0, i32 noundef %1) unnamed_addr #6 comdat align 2 {
  %3 = alloca ptr, align 8
  %4 = alloca i32, align 4
  store ptr %0, ptr %3, align 8, !tbaa !149
  store i32 %1, ptr %4, align 4, !tbaa !11
  %5 = load ptr, ptr %3, align 8
  %6 = load i32, ptr %4, align 4, !tbaa !11
  call void @_ZNSt13__atomic_baseIiEC2Ei(ptr noundef nonnull align 4 dereferenceable(4) %5, i32 noundef %6) #3
  ret void
}

; Function Attrs: mustprogress nounwind uwtable
define linkonce_odr dso_local void @_ZN4absl13cord_internal16RefcountAndFlagsC2Ev(ptr noundef nonnull align 4 dereferenceable(4) %0) unnamed_addr #6 comdat align 2 {
  %2 = alloca ptr, align 8
  store ptr %0, ptr %2, align 8, !tbaa !86
  %3 = load ptr, ptr %2, align 8
  %4 = getelementptr inbounds nuw %"class.absl::cord_internal::RefcountAndFlags", ptr %3, i32 0, i32 0
  call void @_ZNSt6atomicIiEC2Ei(ptr noundef nonnull align 4 dereferenceable(4) %4, i32 noundef 2) #3
  ret void
}

; Function Attrs: mustprogress uwtable
define linkonce_odr dso_local void @_ZN4absl13cord_internal7CordRepC2Ev(ptr noundef nonnull align 8 dereferenceable(16) %0) unnamed_addr #4 comdat align 2 {
  %2 = alloca ptr, align 8
  store ptr %0, ptr %2, align 8, !tbaa !9
  %3 = load ptr, ptr %2, align 8
  %4 = getelementptr inbounds nuw %"struct.absl::cord_internal::CordRep", ptr %3, i32 0, i32 1
  call void @_ZN4absl13cord_internal16RefcountAndFlagsC2Ev(ptr noundef nonnull align 4 dereferenceable(4) %4)
  ret void
}

; Function Attrs: inlinehint mustprogress nounwind uwtable
define linkonce_odr dso_local void @_ZN4absl13cord_internal12CordRepBtree12InitInstanceEimm(ptr noundef nonnull align 8 dereferenceable(64) %0, i32 noundef %1, i64 noundef %2, i64 noundef %3) #8 comdat align 2 {
  %5 = alloca ptr, align 8
  %6 = alloca i32, align 4
  %7 = alloca i64, align 8
  %8 = alloca i64, align 8
  store ptr %0, ptr %5, align 8, !tbaa !4
  store i32 %1, ptr %6, align 4, !tbaa !11
  store i64 %2, ptr %7, align 8, !tbaa !19
  store i64 %3, ptr %8, align 8, !tbaa !19
  %9 = load ptr, ptr %5, align 8
  %10 = getelementptr inbounds nuw %"struct.absl::cord_internal::CordRep", ptr %9, i32 0, i32 2
  store i8 3, ptr %10, align 4, !tbaa !79
  %11 = load i32, ptr %6, align 4, !tbaa !11
  %12 = trunc i32 %11 to i8
  %13 = getelementptr inbounds nuw %"struct.absl::cord_internal::CordRep", ptr %9, i32 0, i32 3
  %14 = getelementptr inbounds [3 x i8], ptr %13, i64 0, i64 0
  store i8 %12, ptr %14, align 1, !tbaa !23
  %15 = load i64, ptr %7, align 8, !tbaa !19
  %16 = trunc i64 %15 to i8
  %17 = getelementptr inbounds nuw %"struct.absl::cord_internal::CordRep", ptr %9, i32 0, i32 3
  %18 = getelementptr inbounds [3 x i8], ptr %17, i64 0, i64 1
  store i8 %16, ptr %18, align 1, !tbaa !23
  %19 = load i64, ptr %8, align 8, !tbaa !19
  %20 = trunc i64 %19 to i8
  %21 = getelementptr inbounds nuw %"struct.absl::cord_internal::CordRep", ptr %9, i32 0, i32 3
  %22 = getelementptr inbounds [3 x i8], ptr %21, i64 0, i64 2
  store i8 %20, ptr %22, align 1, !tbaa !23
  ret void
}

; Function Attrs: mustprogress uwtable
define linkonce_odr dso_local void @_ZN4absl13cord_internal12CordRepBtreeC2Ev(ptr noundef nonnull align 8 dereferenceable(64) %0) unnamed_addr #4 comdat align 2 {
  %2 = alloca ptr, align 8
  store ptr %0, ptr %2, align 8, !tbaa !4
  %3 = load ptr, ptr %2, align 8
  call void @_ZN4absl13cord_internal7CordRepC2Ev(ptr noundef nonnull align 8 dereferenceable(16) %3)
  ret void
}

; Function Attrs: inlinehint mustprogress uwtable
define linkonce_odr dso_local noundef ptr @_ZN4absl13cord_internal12CordRepBtree3NewEi(i32 noundef %0) #7 comdat align 2 personality ptr @__gxx_personality_v0 {
  %2 = alloca i32, align 4
  %3 = alloca ptr, align 8
  %4 = alloca ptr, align 8
  %5 = alloca i32, align 4
  store i32 %0, ptr %2, align 4, !tbaa !11
  call void @llvm.lifetime.start.p0(i64 8, ptr %3) #3
  %6 = call noalias noundef nonnull ptr @_Znwm(i64 noundef 64) #22
  invoke void @_ZN4absl13cord_internal12CordRepBtreeC2Ev(ptr noundef nonnull align 8 dereferenceable(64) %6)
          to label %7 unwind label %13

7:                                                ; preds = %1
  store ptr %6, ptr %3, align 8, !tbaa !4
  %8 = load ptr, ptr %3, align 8, !tbaa !4
  %9 = getelementptr inbounds nuw %"struct.absl::cord_internal::CordRep", ptr %8, i32 0, i32 0
  store i64 0, ptr %9, align 8, !tbaa !13
  %10 = load ptr, ptr %3, align 8, !tbaa !4
  %11 = load i32, ptr %2, align 4, !tbaa !11
  call void @_ZN4absl13cord_internal12CordRepBtree12InitInstanceEimm(ptr noundef nonnull align 8 dereferenceable(64) %10, i32 noundef %11, i64 noundef 0, i64 noundef 0)
  %12 = load ptr, ptr %3, align 8, !tbaa !4
  call void @llvm.lifetime.end.p0(i64 8, ptr %3) #3
  ret ptr %12

13:                                               ; preds = %1
  %14 = landingpad { ptr, i32 }
          cleanup
  %15 = extractvalue { ptr, i32 } %14, 0
  store ptr %15, ptr %4, align 8
  %16 = extractvalue { ptr, i32 } %14, 1
  store i32 %16, ptr %5, align 4
  call void @_ZdlPvm(ptr noundef %6, i64 noundef 64) #20
  call void @llvm.lifetime.end.p0(i64 8, ptr %3) #3
  br label %17

17:                                               ; preds = %13
  %18 = load ptr, ptr %4, align 8
  %19 = load i32, ptr %5, align 4
  %20 = insertvalue { ptr, i32 } poison, ptr %18, 0
  %21 = insertvalue { ptr, i32 } %20, i32 %19, 1
  resume { ptr, i32 } %21
}

; Function Attrs: mustprogress uwtable
define dso_local noundef ptr @_ZN4absl13cord_internal12CordRepBtree7RebuildEPS1_(ptr noundef %0) #4 align 2 {
  %2 = alloca ptr, align 8
  %3 = alloca ptr, align 8
  %4 = alloca ptr, align 8
  %5 = alloca [13 x ptr], align 16
  %6 = alloca ptr, align 8
  %7 = alloca ptr, align 8
  %8 = alloca ptr, align 8
  %9 = alloca i32, align 4
  %10 = alloca ptr, align 8
  store ptr %0, ptr %3, align 8, !tbaa !4
  call void @llvm.lifetime.start.p0(i64 8, ptr %4) #3
  %11 = call noundef ptr @_ZN4absl13cord_internal12CordRepBtree3NewEi(i32 noundef 0)
  store ptr %11, ptr %4, align 8, !tbaa !4
  call void @llvm.lifetime.start.p0(i64 104, ptr %5) #3
  call void @llvm.memset.p0.i64(ptr align 16 %5, i8 0, i64 104, i1 false)
  %12 = load ptr, ptr %4, align 8, !tbaa !4
  store ptr %12, ptr %5, align 8, !tbaa !4
  %13 = getelementptr inbounds [13 x ptr], ptr %5, i64 0, i64 0
  %14 = load ptr, ptr %3, align 8, !tbaa !4
  call void @_ZN4absl13cord_internal12CordRepBtree7RebuildEPPS1_S2_b(ptr noundef %13, ptr noundef %14, i1 noundef zeroext true)
  call void @llvm.lifetime.start.p0(i64 8, ptr %6) #3
  store ptr %5, ptr %6, align 8, !tbaa !133
  call void @llvm.lifetime.start.p0(i64 8, ptr %7) #3
  %15 = load ptr, ptr %6, align 8, !tbaa !133
  %16 = getelementptr inbounds [13 x ptr], ptr %15, i64 0, i64 0
  store ptr %16, ptr %7, align 8, !tbaa !133
  call void @llvm.lifetime.start.p0(i64 8, ptr %8) #3
  %17 = load ptr, ptr %6, align 8, !tbaa !133
  %18 = getelementptr inbounds [13 x ptr], ptr %17, i64 0, i64 0
  %19 = getelementptr inbounds ptr, ptr %18, i64 13
  store ptr %19, ptr %8, align 8, !tbaa !133
  br label %20

20:                                               ; preds = %37, %1
  %21 = load ptr, ptr %7, align 8, !tbaa !133
  %22 = load ptr, ptr %8, align 8, !tbaa !133
  %23 = icmp ne ptr %21, %22
  br i1 %23, label %25, label %24

24:                                               ; preds = %20
  store i32 2, ptr %9, align 4
  br label %40

25:                                               ; preds = %20
  call void @llvm.lifetime.start.p0(i64 8, ptr %10) #3
  %26 = load ptr, ptr %7, align 8, !tbaa !133
  %27 = load ptr, ptr %26, align 8, !tbaa !4
  store ptr %27, ptr %10, align 8, !tbaa !4
  %28 = load ptr, ptr %10, align 8, !tbaa !4
  %29 = icmp eq ptr %28, null
  br i1 %29, label %30, label %32

30:                                               ; preds = %25
  %31 = load ptr, ptr %4, align 8, !tbaa !4
  store ptr %31, ptr %2, align 8
  store i32 1, ptr %9, align 4
  br label %34

32:                                               ; preds = %25
  %33 = load ptr, ptr %10, align 8, !tbaa !4
  store ptr %33, ptr %4, align 8, !tbaa !4
  store i32 0, ptr %9, align 4
  br label %34

34:                                               ; preds = %32, %30
  call void @llvm.lifetime.end.p0(i64 8, ptr %10) #3
  %35 = load i32, ptr %9, align 4
  switch i32 %35, label %40 [
    i32 0, label %36
  ]

36:                                               ; preds = %34
  br label %37

37:                                               ; preds = %36
  %38 = load ptr, ptr %7, align 8, !tbaa !133
  %39 = getelementptr inbounds nuw ptr, ptr %38, i32 1
  store ptr %39, ptr %7, align 8, !tbaa !133
  br label %20

40:                                               ; preds = %34, %24
  call void @llvm.lifetime.end.p0(i64 8, ptr %8) #3
  call void @llvm.lifetime.end.p0(i64 8, ptr %7) #3
  call void @llvm.lifetime.end.p0(i64 8, ptr %6) #3
  %41 = load i32, ptr %9, align 4
  switch i32 %41, label %43 [
    i32 2, label %42
  ]

42:                                               ; preds = %40
  store ptr null, ptr %2, align 8
  store i32 1, ptr %9, align 4
  br label %43

43:                                               ; preds = %42, %40
  call void @llvm.lifetime.end.p0(i64 104, ptr %5) #3
  call void @llvm.lifetime.end.p0(i64 8, ptr %4) #3
  %44 = load ptr, ptr %2, align 8
  ret ptr %44
}