; Function Attrs: mustprogress uwtable
define dso_local noundef ptr @_ZN4absl13cord_internal12CordRepBtree7RebuildEPS1_(ptr noundef %0) local_unnamed_addr #3 align 2 personality ptr @__gxx_personality_v0 {
  %2 = alloca [13 x ptr], align 16
  %3 = tail call noalias noundef nonnull dereferenceable(64) ptr @_Znwm(i64 noundef 64) #21
  %4 = getelementptr inbounds nuw i8, ptr %3, i64 8
  store i32 2, ptr %4, align 4, !tbaa !24
  store i64 0, ptr %3, align 8, !tbaa !7
  %5 = getelementptr inbounds nuw i8, ptr %3, i64 12
  store i8 3, ptr %5, align 4, !tbaa !25
  %6 = getelementptr inbounds nuw i8, ptr %3, i64 13
  store i8 0, ptr %6, align 1, !tbaa !4
  %7 = getelementptr inbounds nuw i8, ptr %3, i64 14
  store i8 0, ptr %7, align 1, !tbaa !4
  %8 = getelementptr inbounds nuw i8, ptr %3, i64 15
  store i8 0, ptr %8, align 1, !tbaa !4
  call void @llvm.lifetime.start.p0(i64 104, ptr nonnull %2) #20
  call void @llvm.memset.p0.i64(ptr noundef nonnull align 16 dereferenceable(104) %2, i8 0, i64 104, i1 false)
  store ptr %3, ptr %2, align 16, !tbaa !14
  call void @_ZN4absl13cord_internal12CordRepBtree7RebuildEPPS1_S2_b(ptr noundef nonnull %2, ptr noundef %0, i1 noundef zeroext true)
  %9 = load ptr, ptr %2, align 16, !tbaa !14
  %.not2023 = icmp eq ptr %9, null
  br i1 %.not2023, label %._crit_edge, label %.lr.ph

.lr.ph:                                           ; preds = %1, %11
  %10 = phi ptr [ %12, %11 ], [ %9, %1 ]
  %.018.idx2124 = phi i64 [ %.018.add, %11 ], [ 0, %1 ]
  %.018.add = add nuw nsw i64 %.018.idx2124, 8
  %.not = icmp eq i64 %.018.add, 104
  br i1 %.not, label %._crit_edge, label %11

11:                                               ; preds = %.lr.ph
  %.018.ptr = getelementptr inbounds nuw i8, ptr %2, i64 %.018.add
  %12 = load ptr, ptr %.018.ptr, align 8, !tbaa !14
  %.not20 = icmp eq ptr %12, null
  br i1 %.not20, label %._crit_edge, label %.lr.ph

._crit_edge:                                      ; preds = %11, %.lr.ph, %1
  %spec.select = phi ptr [ %3, %1 ], [ %10, %11 ], [ null, %.lr.ph ]
  call void @llvm.lifetime.end.p0(i64 104, ptr nonnull %2) #20
  ret ptr %spec.select
}